(dp0
Vfullscreen_mode
p1
I0
sVorientation
p2
Vhorizontal
p3
sVfocus
p4
(lp5
I40170464
aI39698672
asVurgent
p6
I00
sVlast_split_layout
p7
Vsplith
p8
sVfloating
p9
Vauto_off
p10
sVborder
p11
Vpixel
p12
sVid
p13
I39682304
sVcurrent_border_width
p14
I-1
sVlayout
p15
Vsplith
p16
sVpercent
p17
NsVworkspace_layout
p18
Vdefault
p19
sVwindow
p20
NsVnodes
p21
(lp22
(dp23
Vfullscreen_mode
p24
I0
sVorientation
p25
Vnone
p26
sVfocus
p27
(lp28
I39699168
asVurgent
p29
I00
sVlast_split_layout
p30
Vsplith
p31
sVfloating
p32
Vauto_off
p33
sVborder
p34
Vpixel
p35
sVid
p36
I39698672
sVcurrent_border_width
p37
I-1
sVlayout
p38
Voutput
p39
sVpercent
p40
F0.5
sVworkspace_layout
p41
Vdefault
p42
sVwindow
p43
NsVnodes
p44
(lp45
(dp46
Vfullscreen_mode
p47
I0
sVorientation
p48
Vhorizontal
p49
sVfocus
p50
(lp51
I39697040
asVurgent
p52
I00
sVlast_split_layout
p53
Vsplith
p54
sVfloating
p55
Vauto_off
p56
sVborder
p57
Vpixel
p58
sVid
p59
I39699168
sVcurrent_border_width
p60
I-1
sVlayout
p61
Vsplith
p62
sVpercent
p63
NsVworkspace_layout
p64
Vdefault
p65
sVwindow
p66
NsVnodes
p67
(lp68
(dp69
Vfullscreen_mode
p70
I1
sVorientation
p71
Vnone
p72
sVfocus
p73
(lp74
sVurgent
p75
I00
sVnum
p76
I-1
sVlast_split_layout
p77
Vsplith
p78
sVfloating
p79
Vauto_off
p80
sVborder
p81
Vpixel
p82
sVid
p83
I39697040
sVcurrent_border_width
p84
I-1
sVlayout
p85
Vsplith
p86
sVpercent
p87
NsVworkspace_layout
p88
Vdefault
p89
sVwindow
p90
NsVnodes
p91
(lp92
sVtype
p93
Vworkspace
p94
sVswallows
p95
(lp96
sVfocused
p97
I00
sVscratchpad_state
p98
Vnone
p99
sVrect
p100
(dp101
Vy
p102
I0
sVx
p103
I0
sVheight
p104
I0
sVwidth
p105
I0
ssVwindow_rect
p106
(dp107
g102
I0
sg103
I0
sVheight
p108
I0
sVwidth
p109
I0
ssVname
p110
V__i3_scratch
p111
sVgeometry
p112
(dp113
g102
I0
sg103
I0
sVheight
p114
I0
sVwidth
p115
I0
ssVfloating_nodes
p116
(lp117
sasVtype
p118
Vcon
p119
sVswallows
p120
(lp121
sVfocused
p122
I00
sVscratchpad_state
p123
Vnone
p124
sVrect
p125
(dp126
g102
I0
sg103
I0
sVheight
p127
I0
sVwidth
p128
I0
ssVwindow_rect
p129
(dp130
g102
I0
sg103
I0
sVheight
p131
I0
sVwidth
p132
I0
ssVname
p133
Vcontent
p134
sVgeometry
p135
(dp136
g102
I0
sg103
I0
sVheight
p137
I0
sVwidth
p138
I0
ssVfloating_nodes
p139
(lp140
sasVtype
p141
Voutput
p142
sVswallows
p143
(lp144
sVfocused
p145
I00
sVscratchpad_state
p146
Vnone
p147
sVrect
p148
(dp149
g102
I0
sg103
I0
sVheight
p150
I768
sVwidth
p151
I1366
ssVwindow_rect
p152
(dp153
g102
I0
sg103
I0
sVheight
p154
I0
sVwidth
p155
I0
ssVname
p156
V__i3
p157
sVgeometry
p158
(dp159
g102
I0
sg103
I0
sVheight
p160
I0
sVwidth
p161
I0
ssVfloating_nodes
p162
(lp163
sa(dp164
Vfullscreen_mode
p165
I0
sVorientation
p166
Vnone
p167
sVfocus
p168
(lp169
I40171440
aI40170832
aI40172000
asVurgent
p170
I00
sVlast_split_layout
p171
Vsplith
p172
sVfloating
p173
Vauto_off
p174
sVborder
p175
Vpixel
p176
sVid
p177
I40170464
sVcurrent_border_width
p178
I-1
sVlayout
p179
Voutput
p180
sVpercent
p181
F0.5
sVworkspace_layout
p182
Vdefault
p183
sVwindow
p184
NsVnodes
p185
(lp186
(dp187
Vfullscreen_mode
p188
I0
sVorientation
p189
Vnone
p190
sVfocus
p191
(lp192
I40162880
asVurgent
p193
I00
sVlast_split_layout
p194
Vsplith
p195
sVfloating
p196
Vauto_off
p197
sVborder
p198
Vpixel
p199
sVid
p200
I40170832
sVcurrent_border_width
p201
I-1
sVlayout
p202
Vdockarea
p203
sVpercent
p204
NsVworkspace_layout
p205
Vdefault
p206
sVwindow
p207
NsVnodes
p208
(lp209
(dp210
Vwindow_properties
p211
(dp212
Vinstance
p213
Vi3bar
p214
sVclass
p215
Vi3bar
p216
sVtitle
p217
Vi3bar for output LVDS
p218
ssVfullscreen_mode
p219
I0
sVorientation
p220
Vnone
p221
sVprocess
p222
S'i3bar'
p223
sVfocus
p224
(lp225
sVurgent
p226
I00
sVlast_split_layout
p227
Vsplith
p228
sVfloating
p229
Vauto_off
p230
sVborder
p231
Vpixel
p232
sVid
p233
I40162880
sVcurrent_border_width
p234
I-1
sVlayout
p235
Vsplith
p236
sVpercent
p237
F1.0
sVworkspace_layout
p238
Vdefault
p239
sVwindow
p240
I16777223
sVnodes
p241
(lp242
sVtype
p243
Vcon
p244
sVswallows
p245
(lp246
sVfocused
p247
I00
sVscratchpad_state
p248
Vnone
p249
sVrect
p250
(dp251
g102
I0
sg103
I0
sVheight
p252
I17
sVwidth
p253
I1366
ssVwindow_rect
p254
(dp255
g102
I0
sg103
I0
sVheight
p256
I17
sVwidth
p257
I1366
ssVname
p258
Vi3bar for output LVDS
p259
sVgeometry
p260
(dp261
g102
I751
sg103
I0
sVheight
p262
I17
sVwidth
p263
I1366
ssVfloating_nodes
p264
(lp265
sasVtype
p266
Vdockarea
p267
sVswallows
p268
(lp269
(dp270
Vdock
p271
I2
sVinsert_where
p272
I2
sasVfocused
p273
I00
sVscratchpad_state
p274
Vnone
p275
sVrect
p276
(dp277
g102
I0
sg103
I0
sVheight
p278
I17
sVwidth
p279
I1366
ssVwindow_rect
p280
(dp281
g102
I0
sg103
I0
sVheight
p282
I0
sVwidth
p283
I0
ssVname
p284
Vtopdock
p285
sVgeometry
p286
(dp287
g102
I0
sg103
I0
sVheight
p288
I0
sVwidth
p289
I0
ssVfloating_nodes
p290
(lp291
sa(dp292
Vfullscreen_mode
p293
I0
sVorientation
p294
Vhorizontal
p295
sVfocus
p296
(lp297
I40165152
aI40166224
aI40163280
asVurgent
p298
I00
sVlast_split_layout
p299
Vsplith
p300
sVfloating
p301
Vauto_off
p302
sVborder
p303
Vpixel
p304
sVid
p305
I40171440
sVcurrent_border_width
p306
I-1
sVlayout
p307
Vsplith
p308
sVpercent
p309
NsVworkspace_layout
p310
Vdefault
p311
sVwindow
p312
NsVnodes
p313
(lp314
(dp315
Vfullscreen_mode
p316
I1
sVorientation
p317
Vhorizontal
p318
sVfocus
p319
(lp320
I40178288
aI40180048
asVurgent
p321
I00
sVnum
p322
I1
sVlast_split_layout
p323
Vsplith
p324
sVfloating
p325
Vauto_off
p326
sVborder
p327
Vpixel
p328
sVid
p329
I40165152
sVcurrent_border_width
p330
I-1
sVlayout
p331
Vsplith
p332
sVpercent
p333
F0.3333333333333333
sVworkspace_layout
p334
Vdefault
p335
sVwindow
p336
NsVnodes
p337
(lp338
(dp339
Vfullscreen_mode
p340
I0
sVorientation
p341
Vvertical
p342
sVfocus
p343
(lp344
I40168496
asVurgent
p345
I00
sVlast_split_layout
p346
Vsplitv
p347
sVfloating
p348
Vauto_off
p349
sVborder
p350
Vpixel
p351
sVid
p352
I40180048
sVcurrent_border_width
p353
I-1
sVlayout
p354
Vsplitv
p355
sVpercent
p356
F0.5
sVworkspace_layout
p357
Vdefault
p358
sVwindow
p359
NsVnodes
p360
(lp361
(dp362
Vwindow_properties
p363
(dp364
Vinstance
p365
Vurxvt
p366
sVclass
p367
VURxvt
p368
sVtitle
p369
VVIM: ~/Xdefaultsalt/satori.grey.mod.xresources
p370
ssVfullscreen_mode
p371
I0
sVorientation
p372
Vnone
p373
sg222
S'urxvt'
p374
sVfocus
p375
(lp376
sVurgent
p377
I00
sVlast_split_layout
p378
Vsplith
p379
sVfloating
p380
Vauto_off
p381
sVborder
p382
Vpixel
p383
sVid
p384
I40168496
sVcurrent_border_width
p385
I-1
sVlayout
p386
Vsplith
p387
sVpercent
p388
F1.0
sVworkspace_layout
p389
Vdefault
p390
sVwindow
p391
I14680106
sVnodes
p392
(lp393
sVtype
p394
Vcon
p395
sVswallows
p396
(lp397
sVfocused
p398
I00
sVscratchpad_state
p399
Vnone
p400
sVrect
p401
(dp402
g102
I17
sg103
I0
sVheight
p403
I751
sVwidth
p404
I683
ssVwindow_rect
p405
(dp406
g102
I3
sg103
I3
sVheight
p407
I745
sVwidth
p408
I677
ssVname
p409
VVIM: ~/Xdefaultsalt/satori.grey.mod.xresources
p410
sVgeometry
p411
(dp412
g102
I0
sg103
I0
sVheight
p413
I322
sVwidth
p414
I650
ssVfloating_nodes
p415
(lp416
sasVtype
p417
Vcon
p418
sVswallows
p419
(lp420
sVfocused
p421
I00
sVscratchpad_state
p422
Vnone
p423
sVrect
p424
(dp425
g102
I17
sg103
I0
sVheight
p426
I751
sVwidth
p427
I683
ssVwindow_rect
p428
(dp429
g102
I0
sg103
I0
sVheight
p430
I0
sVwidth
p431
I0
ssVname
p432
V#ff0000
p433
sVgeometry
p434
(dp435
g102
I0
sg103
I0
sVheight
p436
I0
sVwidth
p437
I0
ssVfloating_nodes
p438
(lp439
sa(dp440
Vfullscreen_mode
p441
I0
sVorientation
p442
Vhorizontal
p443
sVfocus
p444
(lp445
I40196896
asVurgent
p446
I00
sVlast_split_layout
p447
Vsplith
p448
sVfloating
p449
Vauto_off
p450
sVborder
p451
Vpixel
p452
sVid
p453
I40178288
sVcurrent_border_width
p454
I-1
sVlayout
p455
Vsplith
p456
sVpercent
p457
F0.5
sVworkspace_layout
p458
Vdefault
p459
sVwindow
p460
NsVnodes
p461
(lp462
(dp463
Vwindow_properties
p464
(dp465
Vinstance
p466
Vurxvt
p467
sVclass
p468
VURxvt
p469
sVtitle
p470
Vjwflol@sedative: i3session
p471
ssVfullscreen_mode
p472
I0
sVorientation
p473
Vnone
p474
sg222
S'urxvt'
p475
sVfocus
p476
(lp477
sVurgent
p478
I00
sVlast_split_layout
p479
Vsplith
p480
sVfloating
p481
Vauto_off
p482
sVborder
p483
Vpixel
p484
sVid
p485
I40196896
sVcurrent_border_width
p486
I-1
sVlayout
p487
Vsplith
p488
sVpercent
p489
NsVworkspace_layout
p490
Vdefault
p491
sVwindow
p492
I14680132
sVnodes
p493
(lp494
sVtype
p495
Vcon
p496
sVswallows
p497
(lp498
sVfocused
p499
I01
sVscratchpad_state
p500
Vnone
p501
sVrect
p502
(dp503
g102
I17
sg103
I683
sVheight
p504
I751
sVwidth
p505
I683
ssVwindow_rect
p506
(dp507
g102
I3
sg103
I3
sVheight
p508
I745
sVwidth
p509
I677
ssVname
p510
Vjwflol@sedative: i3session
p511
sVgeometry
p512
(dp513
g102
I0
sg103
I0
sVheight
p514
I322
sVwidth
p515
I650
ssVfloating_nodes
p516
(lp517
sasVtype
p518
Vcon
p519
sVswallows
p520
(lp521
sVfocused
p522
I00
sVscratchpad_state
p523
Vnone
p524
sVrect
p525
(dp526
g102
I17
sg103
I683
sVheight
p527
I751
sVwidth
p528
I683
ssVwindow_rect
p529
(dp530
g102
I0
sg103
I0
sVheight
p531
I0
sVwidth
p532
I0
ssVname
p533
V#00aa00
p534
sVgeometry
p535
(dp536
g102
I0
sg103
I0
sVheight
p537
I0
sVwidth
p538
I0
ssVfloating_nodes
p539
(lp540
sasVtype
p541
Vworkspace
p542
sVswallows
p543
(lp544
sVfocused
p545
I00
sVscratchpad_state
p546
Vnone
p547
sVrect
p548
(dp549
g102
I17
sg103
I0
sVheight
p550
I751
sVwidth
p551
I1366
ssVwindow_rect
p552
(dp553
g102
I0
sg103
I0
sVheight
p554
I0
sVwidth
p555
I0
ssVname
p556
V1: Term
p557
sVgeometry
p558
(dp559
g102
I0
sg103
I0
sVheight
p560
I0
sVwidth
p561
I0
ssVfloating_nodes
p562
(lp563
sa(dp564
Vfullscreen_mode
p565
I0
sVorientation
p566
Vnone
p567
sVfocus
p568
(lp569
I40164336
asVurgent
p570
I00
sVnum
p571
I2
sVlast_split_layout
p572
Vsplith
p573
sVfloating
p574
Vauto_off
p575
sVborder
p576
Vpixel
p577
sVid
p578
I40163280
sVcurrent_border_width
p579
I-1
sVlayout
p580
Vsplith
p581
sVpercent
p582
F0.3333333333333333
sVworkspace_layout
p583
Vdefault
p584
sVwindow
p585
NsVnodes
p586
(lp587
sVtype
p588
Vworkspace
p589
sVswallows
p590
(lp591
sVfocused
p592
I00
sVscratchpad_state
p593
Vnone
p594
sVrect
p595
(dp596
g102
I17
sg103
I0
sVheight
p597
I751
sVwidth
p598
I1366
ssVwindow_rect
p599
(dp600
g102
I0
sg103
I0
sVheight
p601
I0
sVwidth
p602
I0
ssVname
p603
V2: Ranger/NCMPCPP
p604
sVgeometry
p605
(dp606
g102
I0
sg103
I0
sVheight
p607
I0
sVwidth
p608
I0
ssVfloating_nodes
p609
(lp610
(dp611
Vfullscreen_mode
p612
I0
sVorientation
p613
Vhorizontal
p614
sVfocus
p615
(lp616
I40163776
asVurgent
p617
I00
sVlast_split_layout
p618
Vsplith
p619
sVfloating
p620
Vauto_off
p621
sVborder
p622
Vpixel
p623
sVid
p624
I40164336
sVcurrent_border_width
p625
I-1
sVlayout
p626
Vsplith
p627
sVpercent
p628
NsVworkspace_layout
p629
Vdefault
p630
sVwindow
p631
NsVnodes
p632
(lp633
(dp634
Vwindow_properties
p635
(dp636
Vinstance
p637
Vurxvt
p638
sVclass
p639
VURxvt
p640
sVtitle
p641
Vranger:~
p642
ssVfullscreen_mode
p643
I0
sVorientation
p644
Vnone
p645
sVfocus
p646
(lp647
sVurgent
p648
I00
sVlast_split_layout
p649
Vsplith
p650
sVfloating
p651
Vuser_on
p652
sVborder
p653
Vpixel
p654
sVid
p655
I40163776
sVcurrent_border_width
p656
I-1
sVlayout
p657
Vsplith
p658
sVpercent
p659
F1.0
sVworkspace_layout
p660
Vdefault
p661
sVwindow
p662
I14680073
sVnodes
p663
(lp664
sVtype
p665
Vcon
p666
sVswallows
p667
(lp668
sVfocused
p669
I00
sVscratchpad_state
p670
Vnone
p671
sVrect
p672
(dp673
g102
I4294967132
sg103
I4294966968
sVheight
p674
I328
sVwidth
p675
I656
ssVwindow_rect
p676
(dp677
g102
I3
sg103
I3
sVheight
p678
I322
sVwidth
p679
I650
ssVname
p680
Vranger:~
p681
sVgeometry
p682
(dp683
g102
I0
sg103
I0
sVheight
p684
I322
sVwidth
p685
I650
ssVfloating_nodes
p686
(lp687
sasVtype
p688
Vfloating_con
p689
sVswallows
p690
(lp691
sVfocused
p692
I00
sVscratchpad_state
p693
Vnone
p694
sVrect
p695
(dp696
g102
I4294967132
sg103
I4294966968
sVheight
p697
I328
sVwidth
p698
I656
ssVwindow_rect
p699
(dp700
g102
I0
sg103
I0
sVheight
p701
I0
sVwidth
p702
I0
ssVname
p703
V#00ffff
p704
sVgeometry
p705
(dp706
g102
I0
sg103
I0
sVheight
p707
I0
sVwidth
p708
I0
ssVfloating_nodes
p709
(lp710
sasa(dp711
Vfullscreen_mode
p712
I0
sVorientation
p713
Vhorizontal
p714
sVfocus
p715
(lp716
I40166592
asVurgent
p717
I00
sVnum
p718
I3
sVlast_split_layout
p719
Vsplith
p720
sVfloating
p721
Vauto_off
p722
sVborder
p723
Vpixel
p724
sVid
p725
I40166224
sVcurrent_border_width
p726
I-1
sVlayout
p727
Vsplith
p728
sVpercent
p729
F0.3333333333333333
sVworkspace_layout
p730
Vdefault
p731
sVwindow
p732
NsVnodes
p733
(lp734
(dp735
Vwindow_properties
p736
(dp737
Vinstance
p738
VNavigator
p739
sVwindow_role
p740
Vbrowser
p741
sVclass
p742
VIceweasel
p743
sVtitle
p744
Vstarting i3 session from console? - FedoraForum.org - Iceweasel
p745
ssVfullscreen_mode
p746
I0
sVorientation
p747
Vnone
p748
sg222
S'iceweasel'
p749
sVfocus
p750
(lp751
sVurgent
p752
I00
sVlast_split_layout
p753
Vsplith
p754
sVfloating
p755
Vauto_off
p756
sVborder
p757
Vpixel
p758
sVid
p759
I40166592
sVcurrent_border_width
p760
I-1
sVlayout
p761
Vsplith
p762
sVpercent
p763
F1.0
sVworkspace_layout
p764
Vdefault
p765
sVwindow
p766
I31457428
sVnodes
p767
(lp768
sVtype
p769
Vcon
p770
sVswallows
p771
(lp772
sVfocused
p773
I00
sVscratchpad_state
p774
Vnone
p775
sVrect
p776
(dp777
g102
I17
sg103
I0
sVheight
p778
I751
sVwidth
p779
I1366
ssVwindow_rect
p780
(dp781
g102
I3
sg103
I3
sVheight
p782
I745
sVwidth
p783
I1360
ssVname
p784
Vstarting i3 session from console? - FedoraForum.org - Iceweasel
p785
sVgeometry
p786
(dp787
g102
I0
sg103
I0
sVheight
p788
I745
sVwidth
p789
I1360
ssVfloating_nodes
p790
(lp791
sasVtype
p792
Vworkspace
p793
sVswallows
p794
(lp795
sVfocused
p796
I00
sVscratchpad_state
p797
Vnone
p798
sVrect
p799
(dp800
g102
I17
sg103
I0
sVheight
p801
I751
sVwidth
p802
I1366
ssVwindow_rect
p803
(dp804
g102
I0
sg103
I0
sVheight
p805
I0
sVwidth
p806
I0
ssVname
p807
V3: Browser 
p808
sVgeometry
p809
(dp810
g102
I0
sg103
I0
sVheight
p811
I0
sVwidth
p812
I0
ssVfloating_nodes
p813
(lp814
sasVtype
p815
Vcon
p816
sVswallows
p817
(lp818
sVfocused
p819
I00
sVscratchpad_state
p820
Vnone
p821
sVrect
p822
(dp823
g102
I17
sg103
I0
sVheight
p824
I751
sVwidth
p825
I1366
ssVwindow_rect
p826
(dp827
g102
I0
sg103
I0
sVheight
p828
I0
sVwidth
p829
I0
ssVname
p830
Vcontent
p831
sVgeometry
p832
(dp833
g102
I0
sg103
I0
sVheight
p834
I0
sVwidth
p835
I0
ssVfloating_nodes
p836
(lp837
sa(dp838
Vfullscreen_mode
p839
I0
sVorientation
p840
Vnone
p841
sVfocus
p842
(lp843
sVurgent
p844
I00
sVlast_split_layout
p845
Vsplith
p846
sVfloating
p847
Vauto_off
p848
sVborder
p849
Vpixel
p850
sVid
p851
I40172000
sVcurrent_border_width
p852
I-1
sVlayout
p853
Vdockarea
p854
sVpercent
p855
NsVworkspace_layout
p856
Vdefault
p857
sVwindow
p858
NsVnodes
p859
(lp860
sVtype
p861
Vdockarea
p862
sVswallows
p863
(lp864
(dp865
Vdock
p866
I3
sVinsert_where
p867
I2
sasVfocused
p868
I00
sVscratchpad_state
p869
Vnone
p870
sVrect
p871
(dp872
g102
I768
sg103
I0
sVheight
p873
I0
sVwidth
p874
I1366
ssVwindow_rect
p875
(dp876
g102
I0
sg103
I0
sVheight
p877
I0
sVwidth
p878
I0
ssVname
p879
Vbottomdock
p880
sVgeometry
p881
(dp882
g102
I0
sg103
I0
sVheight
p883
I0
sVwidth
p884
I0
ssVfloating_nodes
p885
(lp886
sasVtype
p887
Voutput
p888
sVswallows
p889
(lp890
sVfocused
p891
I00
sVscratchpad_state
p892
Vnone
p893
sVrect
p894
(dp895
g102
I0
sg103
I0
sVheight
p896
I768
sVwidth
p897
I1366
ssVwindow_rect
p898
(dp899
g102
I0
sg103
I0
sVheight
p900
I0
sVwidth
p901
I0
ssVname
p902
VLVDS
p903
sVgeometry
p904
(dp905
g102
I0
sg103
I0
sVheight
p906
I0
sVwidth
p907
I0
ssVfloating_nodes
p908
(lp909
sasVtype
p910
Vroot
p911
sVswallows
p912
(lp913
sVfocused
p914
I00
sVscratchpad_state
p915
Vnone
p916
sVrect
p917
(dp918
g102
I0
sg103
I0
sVheight
p919
I768
sVwidth
p920
I1366
ssVwindow_rect
p921
(dp922
g102
I0
sg103
I0
sVheight
p923
I0
sVwidth
p924
I0
ssVname
p925
Vroot
p926
sVgeometry
p927
(dp928
g102
I0
sg103
I0
sVheight
p929
I0
sVwidth
p930
I0
ssVfloating_nodes
p931
(lp932
s.